target datalayout = "e-m:e-p270:32:32-p271:32:32-p272:64:64-i64:64-i128:128-f80:128-n8:16:32:64-S128"
target triple = "x86_64-pc-linux-gnu"

%struct.fstReaderContext = type { ptr, ptr, i64, i64, i64, i64, i64, i32, i64, i64, ptr, ptr, ptr, i32, ptr, i8, i8, i8, [129 x i8], [120 x i8], i64, ptr, ptr, i64, i32, ptr, ptr, i64, i64, i8, ptr, i64, i64, ptr, i64, ptr, ptr, i64, i64, ptr, i32, i32, ptr, i32, i32, i32, i64, i8, %struct.fstHier, ptr, i32, ptr, i32, i8, [513 x i8], [513 x i8], ptr, i8, i32, i32, [65536 x i8], ptr, ptr }
%struct.fstHier = type { i8, %union.anon }
%union.anon = type { %"struct.fstHier::(anonymous union)::fstHierAttr" }
%"struct.fstHier::(anonymous union)::fstHierAttr" = type { i8, i8, ptr, i64, i64, i32 }

; Function Attrs: mustprogress nounwind uwtable
define i32 @fstReaderGetFacProcessMask(ptr noundef %0, i32 noundef %1) #8 {
  %3 = alloca i32, align 4
  %4 = alloca ptr, align 8
  %5 = alloca i32, align 4
  %6 = alloca ptr, align 8
  %7 = alloca i32, align 4
  %8 = alloca i32, align 4
  %9 = alloca i32, align 4
  store ptr %0, ptr %4, align 8, !tbaa !50
  store i32 %1, ptr %5, align 4, !tbaa !11
  call void @llvm.lifetime.start.p0(i64 8, ptr %6) #15
  %10 = load ptr, ptr %4, align 8, !tbaa !50
  store ptr %10, ptr %6, align 8, !tbaa !147
  %11 = load ptr, ptr %6, align 8, !tbaa !147
  %12 = icmp ne ptr %11, null
  br i1 %12, label %13, label %40

13:                                               ; preds = %2
  %14 = load i32, ptr %5, align 4, !tbaa !11
  %15 = add i32 %14, -1
  store i32 %15, ptr %5, align 4, !tbaa !11
  %16 = load i32, ptr %5, align 4, !tbaa !11
  %17 = load ptr, ptr %6, align 8, !tbaa !147
  %18 = getelementptr inbounds nuw %struct.fstReaderContext, ptr %17, i32 0, i32 7
  %19 = load i32, ptr %18, align 8, !tbaa !161
  %20 = icmp ult i32 %16, %19
  br i1 %20, label %21, label %39

21:                                               ; preds = %13
  call void @llvm.lifetime.start.p0(i64 4, ptr %7) #15
  %22 = load i32, ptr %5, align 4, !tbaa !11
  %23 = udiv i32 %22, 8
  store i32 %23, ptr %7, align 4, !tbaa !11
  call void @llvm.lifetime.start.p0(i64 4, ptr %8) #15
  %24 = load i32, ptr %5, align 4, !tbaa !11
  %25 = and i32 %24, 7
  store i32 %25, ptr %8, align 4, !tbaa !11
  %26 = load ptr, ptr %6, align 8, !tbaa !147
  %27 = getelementptr inbounds nuw %struct.fstReaderContext, ptr %26, i32 0, i32 12
  %28 = load ptr, ptr %27, align 8, !tbaa !162
  %29 = load i32, ptr %7, align 4, !tbaa !11
  %30 = sext i32 %29 to i64
  %31 = getelementptr inbounds i8, ptr %28, i64 %30
  %32 = load i8, ptr %31, align 1, !tbaa !34
  %33 = zext i8 %32 to i32
  %34 = load i32, ptr %8, align 4, !tbaa !11
  %35 = shl i32 1, %34
  %36 = and i32 %33, %35
  %37 = icmp ne i32 %36, 0
  %38 = zext i1 %37 to i32
  store i32 %38, ptr %3, align 4
  store i32 1, ptr %9, align 4
  call void @llvm.lifetime.end.p0(i64 4, ptr %8) #15
  call void @llvm.lifetime.end.p0(i64 4, ptr %7) #15
  br label %41

39:                                               ; preds = %13
  br label %40

40:                                               ; preds = %39, %2
  store i32 0, ptr %3, align 4
  store i32 1, ptr %9, align 4
  br label %41

41:                                               ; preds = %40, %21
  call void @llvm.lifetime.end.p0(i64 8, ptr %6) #15
  %42 = load i32, ptr %3, align 4
  ret i32 %42
}