; Function Attrs: mustprogress nofree norecurse nosync nounwind willreturn memory(read, inaccessiblemem: none) uwtable
define range(i32 0, 2) i32 @fstReaderGetFacProcessMask(ptr noundef readonly captures(address_is_null) %0, i32 noundef %1) local_unnamed_addr #24 {
  %.not = icmp eq ptr %0, null
  br i1 %.not, label %19, label %3

3:                                                ; preds = %2
  %4 = add i32 %1, -1
  %5 = getelementptr inbounds nuw i8, ptr %0, i64 56
  %6 = load i32, ptr %5, align 8, !tbaa !135
  %7 = icmp ult i32 %4, %6
  br i1 %7, label %8, label %19

8:                                                ; preds = %3
  %9 = lshr i32 %4, 3
  %10 = and i32 %4, 7
  %11 = getelementptr inbounds nuw i8, ptr %0, i64 96
  %12 = load ptr, ptr %11, align 8, !tbaa !136
  %13 = zext nneg i32 %9 to i64
  %14 = getelementptr inbounds nuw i8, ptr %12, i64 %13
  %15 = load i8, ptr %14, align 1, !tbaa !6
  %16 = zext i8 %15 to i32
  %17 = lshr i32 %16, %10
  %18 = and i32 %17, 1
  br label %19

19:                                               ; preds = %2, %3, %8
  %.0 = phi i32 [ %18, %8 ], [ 0, %3 ], [ 0, %2 ]
  ret i32 %.0
}